; Function Attrs: mustprogress nounwind uwtable
define internal void @_ZN12_GLOBAL__N_138LogFlagsTest_EmptyBacktraceAtFlag_TestD0Ev(ptr noundef nonnull align 8 dereferenceable(24) %this) unnamed_addr #7 align 2 {
entry:
  store ptr getelementptr inbounds ({ [8 x ptr] }, ptr @_ZTVN12_GLOBAL__N_112LogFlagsTestE, i64 0, i32 0, i64 2), ptr %this, align 8
  %flag_saver_.i.i = getelementptr inbounds i8, ptr %this, i64 16
  tail call void @_ZN4absl9FlagSaverD1Ev(ptr noundef nonnull align 8 dereferenceable(8) %flag_saver_.i.i) #21
  tail call void @_ZN7testing4TestD2Ev(ptr noundef nonnull align 8 dereferenceable(16) %this) #21
  tail call void @_ZdlPv(ptr noundef nonnull %this) #22
  ret void
}